target datalayout = "e-m:e-p270:32:32-p271:32:32-p272:64:64-i64:64-i128:128-f80:128-n8:16:32:64-S128"
target triple = "x86_64-unknown-linux-gnu"

%"struct.node::AssertionInfo" = type { ptr, ptr, ptr }
%"class.node::inspector::ServerSocket" = type <{ %struct.uv_tcp_s, ptr, i32, [4 x i8] }>
%struct.uv_tcp_s = type { ptr, ptr, i32, ptr, %struct.uv__queue, %union.anon.11, ptr, i32, i64, ptr, ptr, ptr, ptr, %struct.uv__io_s, %struct.uv__queue, %struct.uv__queue, ptr, i32, i32, ptr }
%union.anon.11 = type { [4 x ptr] }
%struct.uv__io_s = type { ptr, %struct.uv__queue, %struct.uv__queue, i32, i32, i32 }
%struct.uv__queue = type { ptr, ptr }
%struct.sockaddr_storage = type { i16, [118 x i8], i64 }
%struct.sockaddr_in6 = type { i16, i16, i32, %struct.in6_addr, i32 }
%struct.in6_addr = type { %union.anon.73 }
%union.anon.73 = type { [4 x i32] }
%struct.sockaddr_in = type { i16, i16, %struct.in_addr, [8 x i8] }
%struct.in_addr = type { i32 }

@_ZZN4node9inspector12ServerSocket6ListenEP8sockaddrP9uv_loop_sE4args = internal constant %"struct.node::AssertionInfo" { ptr @.str.36, ptr @.str.37, ptr @.str.38 }, align 8

; Function Attrs: mustprogress nounwind uwtable
define dso_local noundef i32 @_ZN4node9inspector12ServerSocket10DetectPortEv(ptr noundef nonnull align 8 dereferenceable(260) %this) #0 align 2 {
entry:
  %retval = alloca i32, align 4
  %this.addr = alloca ptr, align 8
  %addr = alloca %struct.sockaddr_storage, align 8
  %len = alloca i32, align 4
  %err = alloca i32, align 4
  %port = alloca i32, align 4
  store ptr %this, ptr %this.addr, align 8
  %this1 = load ptr, ptr %this.addr, align 8
  store i32 128, ptr %len, align 4
  %tcp_socket_ = getelementptr inbounds %"class.node::inspector::ServerSocket", ptr %this1, i32 0, i32 0
  %call = call i32 @uv_tcp_getsockname(ptr noundef %tcp_socket_, ptr noundef %addr, ptr noundef %len)
  store i32 %call, ptr %err, align 4
  %0 = load i32, ptr %err, align 4
  %cmp = icmp ne i32 %0, 0
  br i1 %cmp, label %if.then, label %if.end

if.then:                                          ; preds = %entry
  %1 = load i32, ptr %err, align 4
  store i32 %1, ptr %retval, align 4
  br label %return

if.end:                                           ; preds = %entry
  %ss_family = getelementptr inbounds %struct.sockaddr_storage, ptr %addr, i32 0, i32 0
  %2 = load i16, ptr %ss_family, align 8
  %conv = zext i16 %2 to i32
  %cmp2 = icmp eq i32 %conv, 10
  br i1 %cmp2, label %if.then3, label %if.else

if.then3:                                         ; preds = %if.end
  %sin6_port = getelementptr inbounds %struct.sockaddr_in6, ptr %addr, i32 0, i32 1
  %3 = load i16, ptr %sin6_port, align 2
  %conv4 = zext i16 %3 to i32
  store i32 %conv4, ptr %port, align 4
  br label %if.end6

if.else:                                          ; preds = %if.end
  %sin_port = getelementptr inbounds %struct.sockaddr_in, ptr %addr, i32 0, i32 1
  %4 = load i16, ptr %sin_port, align 2
  %conv5 = zext i16 %4 to i32
  store i32 %conv5, ptr %port, align 4
  br label %if.end6

if.end6:                                          ; preds = %if.else, %if.then3
  %5 = load i32, ptr %port, align 4
  %conv7 = trunc i32 %5 to i16
  %call8 = call zeroext i16 @ntohs(i16 noundef zeroext %conv7) #17
  %conv9 = zext i16 %call8 to i32
  %port_ = getelementptr inbounds %"class.node::inspector::ServerSocket", ptr %this1, i32 0, i32 2
  store i32 %conv9, ptr %port_, align 8
  %6 = load i32, ptr %err, align 4
  store i32 %6, ptr %retval, align 4
  br label %return

return:                                           ; preds = %if.end6, %if.then
  %7 = load i32, ptr %retval, align 4
  ret i32 %7
}

; Function Attrs: mustprogress nounwind uwtable
define dso_local noundef i32 @_ZN4node9inspector12ServerSocket6ListenEP8sockaddrP9uv_loop_s(ptr noundef nonnull align 8 dereferenceable(260) %this, ptr noundef %addr, ptr noundef %loop) #0 align 2 {
entry:
  %this.addr = alloca ptr, align 8
  %addr.addr = alloca ptr, align 8
  %loop.addr = alloca ptr, align 8
  %server = alloca ptr, align 8
  %err = alloca i32, align 4
  store ptr %this, ptr %this.addr, align 8
  store ptr %addr, ptr %addr.addr, align 8
  store ptr %loop, ptr %loop.addr, align 8
  %this1 = load ptr, ptr %this.addr, align 8
  %tcp_socket_ = getelementptr inbounds %"class.node::inspector::ServerSocket", ptr %this1, i32 0, i32 0
  store ptr %tcp_socket_, ptr %server, align 8
  br label %do.body

do.body:                                          ; preds = %entry
  %0 = load ptr, ptr %loop.addr, align 8
  %1 = load ptr, ptr %server, align 8
  %call = call i32 @uv_tcp_init(ptr noundef %0, ptr noundef %1)
  %cmp = icmp eq i32 0, %call
  %lnot = xor i1 %cmp, true
  %lnot2 = xor i1 %lnot, true
  %lnot3 = xor i1 %lnot2, true
  br i1 %lnot3, label %if.then, label %if.end

if.then:                                          ; preds = %do.body
  br label %do.body4

do.body4:                                         ; preds = %if.then
  call void @_ZN4node6AssertERKNS_13AssertionInfoE(ptr noundef nonnull align 8 dereferenceable(24) @_ZZN4node9inspector12ServerSocket6ListenEP8sockaddrP9uv_loop_sE4args)
  call void @abort() #14
  unreachable

do.end:                                           ; No predecessors!
  br label %if.end

if.end:                                           ; preds = %do.end, %do.body
  br label %do.end5

do.end5:                                          ; preds = %if.end
  %2 = load ptr, ptr %server, align 8
  %3 = load ptr, ptr %addr.addr, align 8
  %call6 = call i32 @uv_tcp_bind(ptr noundef %2, ptr noundef %3, i32 noundef 0)
  store i32 %call6, ptr %err, align 4
  %4 = load i32, ptr %err, align 4
  %cmp7 = icmp eq i32 %4, 0
  br i1 %cmp7, label %if.then8, label %if.end10

if.then8:                                         ; preds = %do.end5
  %5 = load ptr, ptr %server, align 8
  %call9 = call i32 @uv_listen(ptr noundef %5, i32 noundef 511, ptr noundef @_ZN4node9inspector12ServerSocket23SocketConnectedCallbackEP11uv_stream_si)
  store i32 %call9, ptr %err, align 4
  br label %if.end10

if.end10:                                         ; preds = %if.then8, %do.end5
  %6 = load i32, ptr %err, align 4
  %cmp11 = icmp eq i32 %6, 0
  br i1 %cmp11, label %if.then12, label %if.end14

if.then12:                                        ; preds = %if.end10
  %call13 = call noundef i32 @_ZN4node9inspector12ServerSocket10DetectPortEv(ptr noundef nonnull align 8 dereferenceable(260) %this1)
  store i32 %call13, ptr %err, align 4
  br label %if.end14

if.end14:                                         ; preds = %if.then12, %if.end10
  %7 = load i32, ptr %err, align 4
  ret i32 %7
}