; Function Attrs: mustprogress nounwind uwtable
define dso_local noundef i32 @_ZN4node9inspector12ServerSocket6ListenEP8sockaddrP9uv_loop_s(ptr noundef nonnull align 8 dereferenceable(260) %this, ptr noundef %addr, ptr noundef %loop) local_unnamed_addr #0 align 2 {
entry:
  %addr.i = alloca %struct.sockaddr_storage, align 8
  %len.i = alloca i32, align 4
  %call = tail call i32 @uv_tcp_init(ptr noundef %loop, ptr noundef nonnull %this) #19
  %cmp.not = icmp eq i32 %call, 0
  br i1 %cmp.not, label %do.end5, label %do.body4

do.body4:                                         ; preds = %entry
  tail call void @_ZN4node6AssertERKNS_13AssertionInfoE(ptr noundef nonnull align 8 dereferenceable(24) @_ZZN4node9inspector12ServerSocket6ListenEP8sockaddrP9uv_loop_sE4args) #19
  tail call void @abort() #21
  unreachable

do.end5:                                          ; preds = %entry
  %call6 = tail call i32 @uv_tcp_bind(ptr noundef nonnull %this, ptr noundef %addr, i32 noundef 0) #19
  %cmp7 = icmp eq i32 %call6, 0
  br i1 %cmp7, label %if.end10, label %if.end14

if.end10:                                         ; preds = %do.end5
  %call9 = tail call i32 @uv_listen(ptr noundef nonnull %this, i32 noundef 511, ptr noundef nonnull @_ZN4node9inspector12ServerSocket23SocketConnectedCallbackEP11uv_stream_si) #19
  %cmp11 = icmp eq i32 %call9, 0
  br i1 %cmp11, label %if.then12, label %if.end14

if.then12:                                        ; preds = %if.end10
  call void @llvm.lifetime.start.p0(i64 128, ptr nonnull %addr.i)
  call void @llvm.lifetime.start.p0(i64 4, ptr nonnull %len.i)
  store i32 128, ptr %len.i, align 4
  %call.i = call i32 @uv_tcp_getsockname(ptr noundef nonnull %this, ptr noundef nonnull %addr.i, ptr noundef nonnull %len.i) #19
  %cmp.not.i = icmp eq i32 %call.i, 0
  br i1 %cmp.not.i, label %if.end.i, label %_ZN4node9inspector12ServerSocket10DetectPortEv.exit

if.end.i:                                         ; preds = %if.then12
  %sin6_port.i = getelementptr inbounds i8, ptr %addr.i, i64 2
  %0 = load i16, ptr %sin6_port.i, align 2
  %call8.i = call zeroext i16 @ntohs(i16 noundef zeroext %0) #24
  %conv9.i = zext i16 %call8.i to i32
  %port_.i = getelementptr inbounds i8, ptr %this, i64 256
  store i32 %conv9.i, ptr %port_.i, align 8
  br label %_ZN4node9inspector12ServerSocket10DetectPortEv.exit

_ZN4node9inspector12ServerSocket10DetectPortEv.exit: ; preds = %if.then12, %if.end.i
  call void @llvm.lifetime.end.p0(i64 128, ptr nonnull %addr.i)
  call void @llvm.lifetime.end.p0(i64 4, ptr nonnull %len.i)
  br label %if.end14

if.end14:                                         ; preds = %do.end5, %_ZN4node9inspector12ServerSocket10DetectPortEv.exit, %if.end10
  %err.1 = phi i32 [ %call.i, %_ZN4node9inspector12ServerSocket10DetectPortEv.exit ], [ %call9, %if.end10 ], [ %call6, %do.end5 ]
  ret i32 %err.1
}